; Function Attrs: nounwind uwtable
define i32 @uriParseUriA(ptr noundef %0, ptr noundef %1) local_unnamed_addr #0 {
  %3 = icmp eq ptr %0, null
  %4 = icmp eq ptr %1, null
  %or.cond = or i1 %3, %4
  br i1 %or.cond, label %9, label %5

5:                                                ; preds = %2
  %6 = tail call i64 @strlen(ptr noundef nonnull dereferenceable(1) %1) #8
  %7 = getelementptr inbounds nuw i8, ptr %1, i64 %6
  %8 = tail call fastcc i32 @uriParseUriExMmA(ptr noundef nonnull %0, ptr noundef nonnull %1, ptr noundef nonnull %7, ptr noundef null)
  br label %9

9:                                                ; preds = %2, %5
  %.0 = phi i32 [ %8, %5 ], [ 2, %2 ]
  ret i32 %.0
}